target datalayout = "e-m:e-p270:32:32-p271:32:32-p272:64:64-i64:64-i128:128-f80:128-n8:16:32:64-S128"
target triple = "x86_64-pc-linux-gnu"

%struct.redisObject = type { i32, i32, ptr }
%struct.moduleValue = type { ptr, ptr }
%struct.RedisModuleType = type { i64, ptr, ptr, ptr, ptr, ptr, ptr, ptr, ptr, ptr, ptr, ptr, ptr, ptr, ptr, ptr, ptr, ptr, ptr, i32, [10 x i8] }

@.str.2 = private unnamed_addr constant [5 x i8] c"db.c\00", align 1
@obj_type_name = dso_local global [7 x ptr] [ptr @.str.14, ptr @.str.15, ptr @.str.16, ptr @.str.17, ptr @.str.18, ptr null, ptr @.str.19], align 16
@.str.20 = private unnamed_addr constant [5 x i8] c"none\00", align 1
@.str.21 = private unnamed_addr constant [39 x i8] c"o->type >= 0 && o->type < OBJ_TYPE_MAX\00", align 1

; Function Attrs: nounwind uwtable
define dso_local ptr @getObjectTypeName(ptr noundef %0) #0 {
  %2 = alloca ptr, align 8
  %3 = alloca ptr, align 8
  %4 = alloca ptr, align 8
  store ptr %0, ptr %3, align 8, !tbaa !5
  %5 = load ptr, ptr %3, align 8, !tbaa !5
  %6 = icmp eq ptr %5, null
  br i1 %6, label %7, label %8

7:                                                ; preds = %1
  store ptr @.str.20, ptr %2, align 8
  br label %50

8:                                                ; preds = %1
  %9 = load ptr, ptr %3, align 8, !tbaa !5
  %10 = load i32, ptr %9, align 8
  %11 = and i32 %10, 15
  %12 = icmp sge i32 %11, 0
  br i1 %12, label %13, label %18

13:                                               ; preds = %8
  %14 = load ptr, ptr %3, align 8, !tbaa !5
  %15 = load i32, ptr %14, align 8
  %16 = and i32 %15, 15
  %17 = icmp slt i32 %16, 7
  br label %18

18:                                               ; preds = %13, %8
  %19 = phi i1 [ false, %8 ], [ %17, %13 ]
  %20 = xor i1 %19, true
  %21 = xor i1 %20, true
  %22 = zext i1 %21 to i32
  %23 = sext i32 %22 to i64
  %24 = call i64 @llvm.expect.i64(i64 %23, i64 1)
  %25 = icmp ne i64 %24, 0
  br i1 %25, label %26, label %27

26:                                               ; preds = %18
  br label %29

27:                                               ; preds = %18
  call void @_serverAssert(ptr noundef @.str.21, ptr noundef @.str.2, i32 noundef 1144)
  call void @abort() #16
  unreachable

28:                                               ; No predecessors!
  br label %29

29:                                               ; preds = %28, %26
  %30 = load ptr, ptr %3, align 8, !tbaa !5
  %31 = load i32, ptr %30, align 8
  %32 = and i32 %31, 15
  %33 = icmp eq i32 %32, 5
  br i1 %33, label %34, label %43

34:                                               ; preds = %29
  call void @llvm.lifetime.start.p0(i64 8, ptr %4) #15
  %35 = load ptr, ptr %3, align 8, !tbaa !5
  %36 = getelementptr inbounds nuw %struct.redisObject, ptr %35, i32 0, i32 2
  %37 = load ptr, ptr %36, align 8, !tbaa !25
  store ptr %37, ptr %4, align 8, !tbaa !159
  %38 = load ptr, ptr %4, align 8, !tbaa !159
  %39 = getelementptr inbounds nuw %struct.moduleValue, ptr %38, i32 0, i32 0
  %40 = load ptr, ptr %39, align 8, !tbaa !139
  %41 = getelementptr inbounds nuw %struct.RedisModuleType, ptr %40, i32 0, i32 20
  %42 = getelementptr inbounds [10 x i8], ptr %41, i64 0, i64 0
  store ptr %42, ptr %2, align 8
  call void @llvm.lifetime.end.p0(i64 8, ptr %4) #15
  br label %50

43:                                               ; preds = %29
  %44 = load ptr, ptr %3, align 8, !tbaa !5
  %45 = load i32, ptr %44, align 8
  %46 = and i32 %45, 15
  %47 = zext i32 %46 to i64
  %48 = getelementptr inbounds nuw [7 x ptr], ptr @obj_type_name, i64 0, i64 %47
  %49 = load ptr, ptr %48, align 8, !tbaa !78
  store ptr %49, ptr %2, align 8
  br label %50

50:                                               ; preds = %43, %34, %7
  %51 = load ptr, ptr %2, align 8
  ret ptr %51
}