; Function Attrs: nounwind uwtable
define dso_local ptr @getObjectTypeName(ptr noundef readonly captures(address_is_null) %0) local_unnamed_addr #0 {
  %2 = icmp eq ptr %0, null
  br i1 %2, label %19, label %3

3:                                                ; preds = %1
  %4 = load i32, ptr %0, align 8
  %5 = and i32 %4, 15
  %6 = icmp samesign ult i32 %5, 7
  br i1 %6, label %8, label %7, !prof !73

7:                                                ; preds = %3
  tail call void @_serverAssert(ptr noundef nonnull @.str.21, ptr noundef nonnull @.str.2, i32 noundef 1144) #20
  tail call void @abort() #21
  unreachable

8:                                                ; preds = %3
  %9 = icmp eq i32 %5, 5
  br i1 %9, label %10, label %15

10:                                               ; preds = %8
  %11 = getelementptr inbounds nuw i8, ptr %0, i64 8
  %12 = load ptr, ptr %11, align 8, !tbaa !18
  %13 = load ptr, ptr %12, align 8, !tbaa !121
  %14 = getelementptr inbounds nuw i8, ptr %13, i64 156
  br label %19

15:                                               ; preds = %8
  %16 = zext nneg i32 %5 to i64
  %17 = getelementptr inbounds nuw [7 x ptr], ptr @obj_type_name, i64 0, i64 %16
  %18 = load ptr, ptr %17, align 8, !tbaa !136
  br label %19

19:                                               ; preds = %1, %15, %10
  %.0 = phi ptr [ %14, %10 ], [ %18, %15 ], [ @.str.20, %1 ]
  ret ptr %.0
}